target datalayout = "e-m:e-p270:32:32-p271:32:32-p272:64:64-i64:64-i128:128-f80:128-n8:16:32:64-S128"
target triple = "x86_64-pc-linux-gnu"

%struct.buf_t = type { i32, ptr, i32, i32, i8, i8 }

@plugin_type = dso_local constant [11 x i8] c"cred/munge\00", align 1
@.str.9 = private unnamed_addr constant [47 x i8] c"%s: %s: Munge encode failed: %s (retrying ...)\00", align 1
@__func__._encode = private unnamed_addr constant [8 x i8] c"_encode\00", align 1
@.str.10 = private unnamed_addr constant [47 x i8] c"If munged is up, restart with --num-threads=10\00", align 1

; Function Attrs: nounwind uwtable
define internal ptr @_encode(ptr noundef %0) #0 {
  %2 = alloca ptr, align 8
  %3 = alloca ptr, align 8
  %4 = alloca i32, align 4
  %5 = alloca ptr, align 8
  %6 = alloca ptr, align 8
  %7 = alloca i32, align 4
  %8 = alloca ptr, align 8
  %9 = alloca i32, align 4
  store ptr %0, ptr %3, align 8
  call void @llvm.lifetime.start.p0(i64 4, ptr %4) #5
  store i32 20, ptr %4, align 4
  call void @llvm.lifetime.start.p0(i64 8, ptr %5) #5
  call void @llvm.lifetime.start.p0(i64 8, ptr %6) #5
  call void @llvm.lifetime.start.p0(i64 4, ptr %7) #5
  call void @llvm.lifetime.start.p0(i64 8, ptr %8) #5
  %10 = call ptr @_munge_ctx_create()
  store ptr %10, ptr %8, align 8
  %11 = load ptr, ptr %8, align 8
  %12 = icmp ne ptr %11, null
  br i1 %12, label %14, label %13

13:                                               ; preds = %1
  store ptr null, ptr %2, align 8
  store i32 1, ptr %9, align 4
  br label %60

14:                                               ; preds = %1
  br label %15

15:                                               ; preds = %45, %14
  %16 = load ptr, ptr %8, align 8
  %17 = load ptr, ptr %3, align 8
  %18 = getelementptr inbounds nuw %struct.buf_t, ptr %17, i32 0, i32 1
  %19 = load ptr, ptr %18, align 8
  %20 = load ptr, ptr %3, align 8
  %21 = getelementptr inbounds nuw %struct.buf_t, ptr %20, i32 0, i32 3
  %22 = load i32, ptr %21, align 4
  %23 = call i32 @munge_encode(ptr noundef %6, ptr noundef %16, ptr noundef %19, i32 noundef %22)
  store i32 %23, ptr %7, align 4
  %24 = load i32, ptr %7, align 4
  %25 = icmp ne i32 %24, 0
  br i1 %25, label %26, label %54

26:                                               ; preds = %15
  %27 = load i32, ptr %7, align 4
  %28 = icmp eq i32 %27, 6
  br i1 %28, label %29, label %47

29:                                               ; preds = %26
  %30 = load i32, ptr %4, align 4
  %31 = add nsw i32 %30, -1
  store i32 %31, ptr %4, align 4
  %32 = icmp ne i32 %30, 0
  br i1 %32, label %33, label %47

33:                                               ; preds = %29
  br label %34

34:                                               ; preds = %33
  br label %35

35:                                               ; preds = %34
  %36 = call i32 @slurm_get_log_level()
  %37 = icmp sge i32 %36, 5
  br i1 %37, label %38, label %41

38:                                               ; preds = %35
  %39 = load ptr, ptr %8, align 8
  %40 = call ptr @munge_ctx_strerror(ptr noundef %39)
  call void (i32, ptr, ...) @slurm_log_var(i32 noundef 5, ptr noundef @.str.9, ptr noundef @plugin_type, ptr noundef @__func__._encode, ptr noundef %40)
  br label %41

41:                                               ; preds = %38, %35
  br label %42

42:                                               ; preds = %41
  br label %43

43:                                               ; preds = %42
  br label %44

44:                                               ; preds = %43
  br label %45

45:                                               ; preds = %44
  %46 = call i32 @usleep(i32 noundef 100000)
  br label %15

47:                                               ; preds = %29, %26
  %48 = load i32, ptr %7, align 4
  %49 = icmp eq i32 %48, 6
  br i1 %49, label %50, label %52

50:                                               ; preds = %47
  %51 = call i32 (ptr, ...) @slurm_error(ptr noundef @.str.10)
  br label %52

52:                                               ; preds = %50, %47
  %53 = load ptr, ptr %8, align 8
  call void @munge_ctx_destroy(ptr noundef %53)
  store ptr null, ptr %2, align 8
  store i32 1, ptr %9, align 4
  br label %60

54:                                               ; preds = %15
  %55 = load ptr, ptr %6, align 8
  %56 = call ptr @slurm_xstrdup(ptr noundef %55)
  store ptr %56, ptr %5, align 8
  %57 = load ptr, ptr %6, align 8
  call void @free(ptr noundef %57) #5
  %58 = load ptr, ptr %8, align 8
  call void @munge_ctx_destroy(ptr noundef %58)
  %59 = load ptr, ptr %5, align 8
  store ptr %59, ptr %2, align 8
  store i32 1, ptr %9, align 4
  br label %60

60:                                               ; preds = %54, %52, %13
  call void @llvm.lifetime.end.p0(i64 8, ptr %8) #5
  call void @llvm.lifetime.end.p0(i64 4, ptr %7) #5
  call void @llvm.lifetime.end.p0(i64 8, ptr %6) #5
  call void @llvm.lifetime.end.p0(i64 8, ptr %5) #5
  call void @llvm.lifetime.end.p0(i64 4, ptr %4) #5
  %61 = load ptr, ptr %2, align 8
  ret ptr %61
}