; Function Attrs: nounwind uwtable
define internal fastcc ptr @_encode(ptr noundef readonly captures(none) %0) unnamed_addr #0 {
  %2 = alloca ptr, align 8
  call void @llvm.lifetime.start.p0(i64 8, ptr nonnull %2) #7
  %3 = tail call fastcc ptr @_munge_ctx_create()
  %.not = icmp eq ptr %3, null
  br i1 %.not, label %25, label %.preheader

.preheader:                                       ; preds = %1
  %4 = getelementptr inbounds nuw i8, ptr %0, i64 8
  %5 = getelementptr inbounds nuw i8, ptr %0, i64 20
  br label %6

6:                                                ; preds = %.preheader, %17
  %.012 = phi i32 [ %11, %17 ], [ 20, %.preheader ]
  %7 = load ptr, ptr %4, align 8
  %8 = load i32, ptr %5, align 4
  %9 = call i32 @munge_encode(ptr noundef nonnull %2, ptr noundef nonnull %3, ptr noundef %7, i32 noundef %8) #7
  switch i32 %9, label %.sink.split [
    i32 0, label %21
    i32 6, label %10
  ]

10:                                               ; preds = %6
  %11 = add nsw i32 %.012, -1
  %.not15 = icmp eq i32 %.012, 0
  br i1 %.not15, label %19, label %12

12:                                               ; preds = %10
  %13 = call i32 @slurm_get_log_level() #7
  %14 = icmp sgt i32 %13, 4
  br i1 %14, label %15, label %17

15:                                               ; preds = %12
  %16 = call ptr @munge_ctx_strerror(ptr noundef nonnull %3) #7
  call void (i32, ptr, ...) @slurm_log_var(i32 noundef 5, ptr noundef nonnull @.str.9, ptr noundef nonnull @plugin_type, ptr noundef nonnull @__func__._encode, ptr noundef %16) #7
  br label %17

17:                                               ; preds = %15, %12
  %18 = call i32 @usleep(i32 noundef 100000) #7
  br label %6

19:                                               ; preds = %10
  %20 = call i32 (ptr, ...) @slurm_error(ptr noundef nonnull @.str.10) #7
  br label %.sink.split

21:                                               ; preds = %6
  %22 = load ptr, ptr %2, align 8
  %23 = call ptr @slurm_xstrdup(ptr noundef %22) #7
  %24 = load ptr, ptr %2, align 8
  call void @free(ptr noundef %24) #7
  br label %.sink.split

.sink.split:                                      ; preds = %6, %19, %21
  %.0.ph = phi ptr [ %23, %21 ], [ null, %19 ], [ null, %6 ]
  call void @munge_ctx_destroy(ptr noundef nonnull %3) #7
  br label %25

25:                                               ; preds = %.sink.split, %1
  %.0 = phi ptr [ null, %1 ], [ %.0.ph, %.sink.split ]
  call void @llvm.lifetime.end.p0(i64 8, ptr nonnull %2) #7
  ret ptr %.0
}